target datalayout = "e-m:e-p270:32:32-p271:32:32-p272:64:64-i64:64-i128:128-f80:128-n8:16:32:64-S128"
target triple = "x86_64-pc-linux-gnu"

%struct.MRef = type { i64 }
%struct.SBuf = type { ptr, ptr, ptr, %struct.MRef }

@lj_char_bits = external hidden constant [257 x i8], align 16

; Function Attrs: alwaysinline nounwind uwtable
define internal ptr @lj_buf_more(ptr noundef %0, i32 noundef %1) #5 {
  %3 = alloca ptr, align 8
  %4 = alloca ptr, align 8
  %5 = alloca i32, align 4
  store ptr %0, ptr %4, align 8, !tbaa !40
  store i32 %1, ptr %5, align 4, !tbaa !17
  %6 = load i32, ptr %5, align 4, !tbaa !17
  %7 = load ptr, ptr %4, align 8, !tbaa !40
  %8 = getelementptr inbounds nuw %struct.SBuf, ptr %7, i32 0, i32 1
  %9 = load ptr, ptr %8, align 8, !tbaa !48
  %10 = load ptr, ptr %4, align 8, !tbaa !40
  %11 = getelementptr inbounds nuw %struct.SBuf, ptr %10, i32 0, i32 0
  %12 = load ptr, ptr %11, align 8, !tbaa !42
  %13 = ptrtoint ptr %9 to i64
  %14 = ptrtoint ptr %12 to i64
  %15 = sub i64 %13, %14
  %16 = trunc i64 %15 to i32
  %17 = icmp ugt i32 %6, %16
  %18 = xor i1 %17, true
  %19 = xor i1 %18, true
  %20 = zext i1 %19 to i32
  %21 = sext i32 %20 to i64
  %22 = call i64 @llvm.expect.i64(i64 %21, i64 0)
  %23 = icmp ne i64 %22, 0
  br i1 %23, label %24, label %28

24:                                               ; preds = %2
  %25 = load ptr, ptr %4, align 8, !tbaa !40
  %26 = load i32, ptr %5, align 4, !tbaa !17
  %27 = call ptr @lj_buf_more2(ptr noundef %25, i32 noundef %26)
  store ptr %27, ptr %3, align 8
  br label %32

28:                                               ; preds = %2
  %29 = load ptr, ptr %4, align 8, !tbaa !40
  %30 = getelementptr inbounds nuw %struct.SBuf, ptr %29, i32 0, i32 0
  %31 = load ptr, ptr %30, align 8, !tbaa !42
  store ptr %31, ptr %3, align 8
  br label %32

32:                                               ; preds = %28, %24
  %33 = load ptr, ptr %3, align 8
  ret ptr %33
}

; Function Attrs: alwaysinline nounwind uwtable
define internal void @lj_buf_putb(ptr noundef %0, i32 noundef %1) #5 {
  %3 = alloca ptr, align 8
  %4 = alloca i32, align 4
  %5 = alloca ptr, align 8
  store ptr %0, ptr %3, align 8, !tbaa !40
  store i32 %1, ptr %4, align 4, !tbaa !17
  call void @llvm.lifetime.start.p0(i64 8, ptr %5) #10
  %6 = load ptr, ptr %3, align 8, !tbaa !40
  %7 = call ptr @lj_buf_more(ptr noundef %6, i32 noundef 1)
  store ptr %7, ptr %5, align 8, !tbaa !13
  %8 = load i32, ptr %4, align 4, !tbaa !17
  %9 = trunc i32 %8 to i8
  %10 = load ptr, ptr %5, align 8, !tbaa !13
  %11 = getelementptr inbounds nuw i8, ptr %10, i32 1
  store ptr %11, ptr %5, align 8, !tbaa !13
  store i8 %9, ptr %10, align 1, !tbaa !16
  %12 = load ptr, ptr %5, align 8, !tbaa !13
  %13 = load ptr, ptr %3, align 8, !tbaa !40
  %14 = getelementptr inbounds nuw %struct.SBuf, ptr %13, i32 0, i32 0
  store ptr %12, ptr %14, align 8, !tbaa !42
  call void @llvm.lifetime.end.p0(i64 8, ptr %5) #10
  ret void
}

; Function Attrs: nounwind uwtable
define internal ptr @strfmt_putquotedlen(ptr noundef %0, ptr noundef %1, i32 noundef %2) #0 {
  %4 = alloca ptr, align 8
  %5 = alloca ptr, align 8
  %6 = alloca i32, align 4
  %7 = alloca i32, align 4
  %8 = alloca ptr, align 8
  %9 = alloca i32, align 4
  store ptr %0, ptr %4, align 8, !tbaa !40
  store ptr %1, ptr %5, align 8, !tbaa !13
  store i32 %2, ptr %6, align 4, !tbaa !17
  %10 = load ptr, ptr %4, align 8, !tbaa !40
  call void @lj_buf_putb(ptr noundef %10, i32 noundef 34)
  br label %11

11:                                               ; preds = %91, %3
  %12 = load i32, ptr %6, align 4, !tbaa !17
  %13 = add i32 %12, -1
  store i32 %13, ptr %6, align 4, !tbaa !17
  %14 = icmp ne i32 %12, 0
  br i1 %14, label %15, label %99

15:                                               ; preds = %11
  call void @llvm.lifetime.start.p0(i64 4, ptr %7) #10
  %16 = load ptr, ptr %5, align 8, !tbaa !13
  %17 = getelementptr inbounds nuw i8, ptr %16, i32 1
  store ptr %17, ptr %5, align 8, !tbaa !13
  %18 = load i8, ptr %16, align 1, !tbaa !16
  %19 = zext i8 %18 to i32
  store i32 %19, ptr %7, align 4, !tbaa !17
  call void @llvm.lifetime.start.p0(i64 8, ptr %8) #10
  %20 = load ptr, ptr %4, align 8, !tbaa !40
  %21 = call ptr @lj_buf_more(ptr noundef %20, i32 noundef 4)
  store ptr %21, ptr %8, align 8, !tbaa !13
  %22 = load i32, ptr %7, align 4, !tbaa !17
  %23 = icmp eq i32 %22, 34
  br i1 %23, label %30, label %24

24:                                               ; preds = %15
  %25 = load i32, ptr %7, align 4, !tbaa !17
  %26 = icmp eq i32 %25, 92
  br i1 %26, label %30, label %27

27:                                               ; preds = %24
  %28 = load i32, ptr %7, align 4, !tbaa !17
  %29 = icmp eq i32 %28, 10
  br i1 %29, label %30, label %33

30:                                               ; preds = %27, %24, %15
  %31 = load ptr, ptr %8, align 8, !tbaa !13
  %32 = getelementptr inbounds nuw i8, ptr %31, i32 1
  store ptr %32, ptr %8, align 8, !tbaa !13
  store i8 92, ptr %31, align 1, !tbaa !16
  br label %91

33:                                               ; preds = %27
  %34 = load i32, ptr %7, align 4, !tbaa !17
  %35 = zext i32 %34 to i64
  %36 = getelementptr inbounds nuw i8, ptr getelementptr inbounds (i8, ptr @lj_char_bits, i64 1), i64 %35
  %37 = load i8, ptr %36, align 1, !tbaa !16
  %38 = zext i8 %37 to i32
  %39 = and i32 %38, 1
  %40 = icmp ne i32 %39, 0
  br i1 %40, label %41, label %90

41:                                               ; preds = %33
  call void @llvm.lifetime.start.p0(i64 4, ptr %9) #10
  %42 = load ptr, ptr %8, align 8, !tbaa !13
  %43 = getelementptr inbounds nuw i8, ptr %42, i32 1
  store ptr %43, ptr %8, align 8, !tbaa !13
  store i8 92, ptr %42, align 1, !tbaa !16
  %44 = load i32, ptr %7, align 4, !tbaa !17
  %45 = icmp uge i32 %44, 100
  br i1 %45, label %55, label %46

46:                                               ; preds = %41
  %47 = load ptr, ptr %5, align 8, !tbaa !13
  %48 = load i8, ptr %47, align 1, !tbaa !16
  %49 = zext i8 %48 to i64
  %50 = getelementptr inbounds nuw i8, ptr getelementptr inbounds (i8, ptr @lj_char_bits, i64 1), i64 %49
  %51 = load i8, ptr %50, align 1, !tbaa !16
  %52 = zext i8 %51 to i32
  %53 = and i32 %52, 8
  %54 = icmp ne i32 %53, 0
  br i1 %54, label %55, label %69

55:                                               ; preds = %46, %41
  %56 = load i32, ptr %7, align 4, !tbaa !17
  %57 = icmp uge i32 %56, 100
  %58 = zext i1 %57 to i32
  %59 = add nsw i32 48, %58
  %60 = trunc i32 %59 to i8
  %61 = load ptr, ptr %8, align 8, !tbaa !13
  %62 = getelementptr inbounds nuw i8, ptr %61, i32 1
  store ptr %62, ptr %8, align 8, !tbaa !13
  store i8 %60, ptr %61, align 1, !tbaa !16
  %63 = load i32, ptr %7, align 4, !tbaa !17
  %64 = icmp uge i32 %63, 100
  br i1 %64, label %65, label %68

65:                                               ; preds = %55
  %66 = load i32, ptr %7, align 4, !tbaa !17
  %67 = sub i32 %66, 100
  store i32 %67, ptr %7, align 4, !tbaa !17
  br label %68

68:                                               ; preds = %65, %55
  br label %73

69:                                               ; preds = %46
  %70 = load i32, ptr %7, align 4, !tbaa !17
  %71 = icmp uge i32 %70, 10
  br i1 %71, label %72, label %86

72:                                               ; preds = %69
  br label %73

73:                                               ; preds = %72, %68
  %74 = load i32, ptr %7, align 4, !tbaa !17
  %75 = mul i32 %74, 205
  %76 = lshr i32 %75, 11
  store i32 %76, ptr %9, align 4, !tbaa !17
  %77 = load i32, ptr %9, align 4, !tbaa !17
  %78 = mul i32 %77, 10
  %79 = load i32, ptr %7, align 4, !tbaa !17
  %80 = sub i32 %79, %78
  store i32 %80, ptr %7, align 4, !tbaa !17
  %81 = load i32, ptr %9, align 4, !tbaa !17
  %82 = add i32 48, %81
  %83 = trunc i32 %82 to i8
  %84 = load ptr, ptr %8, align 8, !tbaa !13
  %85 = getelementptr inbounds nuw i8, ptr %84, i32 1
  store ptr %85, ptr %8, align 8, !tbaa !13
  store i8 %83, ptr %84, align 1, !tbaa !16
  br label %86

86:                                               ; preds = %73, %69
  br label %87

87:                                               ; preds = %86
  %88 = load i32, ptr %7, align 4, !tbaa !17
  %89 = add i32 %88, 48
  store i32 %89, ptr %7, align 4, !tbaa !17
  call void @llvm.lifetime.end.p0(i64 4, ptr %9) #10
  br label %90

90:                                               ; preds = %87, %33
  br label %91

91:                                               ; preds = %90, %30
  %92 = load i32, ptr %7, align 4, !tbaa !17
  %93 = trunc i32 %92 to i8
  %94 = load ptr, ptr %8, align 8, !tbaa !13
  %95 = getelementptr inbounds nuw i8, ptr %94, i32 1
  store ptr %95, ptr %8, align 8, !tbaa !13
  store i8 %93, ptr %94, align 1, !tbaa !16
  %96 = load ptr, ptr %8, align 8, !tbaa !13
  %97 = load ptr, ptr %4, align 8, !tbaa !40
  %98 = getelementptr inbounds nuw %struct.SBuf, ptr %97, i32 0, i32 0
  store ptr %96, ptr %98, align 8, !tbaa !42
  call void @llvm.lifetime.end.p0(i64 8, ptr %8) #10
  call void @llvm.lifetime.end.p0(i64 4, ptr %7) #10
  br label %11, !llvm.loop !53

99:                                               ; preds = %11
  %100 = load ptr, ptr %4, align 8, !tbaa !40
  call void @lj_buf_putb(ptr noundef %100, i32 noundef 34)
  %101 = load ptr, ptr %4, align 8, !tbaa !40
  ret ptr %101
}