; Function Attrs: nounwind uwtable
define internal fastcc noundef ptr @strfmt_putquotedlen(ptr noundef returned %0, ptr noundef readonly captures(none) %1, i32 noundef %2) unnamed_addr #5 {
  %4 = getelementptr inbounds nuw i8, ptr %0, i64 8
  %5 = load ptr, ptr %4, align 8, !tbaa !35
  %6 = load ptr, ptr %0, align 8, !tbaa !34
  %7 = ptrtoint ptr %5 to i64
  %8 = ptrtoint ptr %6 to i64
  %9 = sub i64 %7, %8
  %10 = and i64 %9, 4294967295
  %11 = icmp eq i64 %10, 0
  br i1 %11, label %12, label %lj_buf_putb.exit, !prof !36

12:                                               ; preds = %3
  %13 = tail call ptr @lj_buf_more2(ptr noundef nonnull %0, i32 noundef 1) #13
  br label %lj_buf_putb.exit

lj_buf_putb.exit:                                 ; preds = %3, %12
  %.0.i.i = phi ptr [ %13, %12 ], [ %6, %3 ]
  store i8 34, ptr %.0.i.i, align 1, !tbaa !13
  %storemerge41 = getelementptr inbounds nuw i8, ptr %.0.i.i, i64 1
  store ptr %storemerge41, ptr %0, align 8, !tbaa !34
  %.not42 = icmp eq i32 %2, 0
  br i1 %.not42, label %._crit_edge, label %.lr.ph

.lr.ph:                                           ; preds = %lj_buf_putb.exit, %59
  %14 = phi ptr [ %storemerge, %59 ], [ %storemerge41, %lj_buf_putb.exit ]
  %.in = phi i32 [ %15, %59 ], [ %2, %lj_buf_putb.exit ]
  %.043 = phi ptr [ %16, %59 ], [ %1, %lj_buf_putb.exit ]
  %15 = add i32 %.in, -1
  %16 = getelementptr inbounds nuw i8, ptr %.043, i64 1
  %17 = load i8, ptr %.043, align 1, !tbaa !13
  %18 = zext i8 %17 to i32
  %19 = load ptr, ptr %4, align 8, !tbaa !35
  %20 = ptrtoint ptr %19 to i64
  %21 = ptrtoint ptr %14 to i64
  %22 = sub i64 %20, %21
  %23 = and i64 %22, 4294967292
  %24 = icmp eq i64 %23, 0
  br i1 %24, label %25, label %lj_buf_more.exit, !prof !36

25:                                               ; preds = %.lr.ph
  %26 = tail call ptr @lj_buf_more2(ptr noundef nonnull %0, i32 noundef 4) #13
  br label %lj_buf_more.exit

lj_buf_more.exit:                                 ; preds = %.lr.ph, %25
  %.0.i = phi ptr [ %26, %25 ], [ %14, %.lr.ph ]
  switch i8 %17, label %29 [
    i8 92, label %27
    i8 34, label %27
    i8 10, label %27
  ]

27:                                               ; preds = %lj_buf_more.exit, %lj_buf_more.exit, %lj_buf_more.exit
  %28 = getelementptr inbounds nuw i8, ptr %.0.i, i64 1
  store i8 92, ptr %.0.i, align 1, !tbaa !13
  br label %59

29:                                               ; preds = %lj_buf_more.exit
  %30 = zext i8 %17 to i64
  %31 = getelementptr inbounds nuw i8, ptr getelementptr inbounds nuw (i8, ptr @lj_char_bits, i64 1), i64 %30
  %32 = load i8, ptr %31, align 1, !tbaa !13
  %33 = and i8 %32, 1
  %.not37 = icmp eq i8 %33, 0
  br i1 %.not37, label %59, label %34

34:                                               ; preds = %29
  %35 = getelementptr inbounds nuw i8, ptr %.0.i, i64 1
  store i8 92, ptr %.0.i, align 1, !tbaa !13
  %36 = icmp ugt i8 %17, 99
  br i1 %36, label %43, label %37

37:                                               ; preds = %34
  %38 = load i8, ptr %16, align 1, !tbaa !13
  %39 = zext i8 %38 to i64
  %40 = getelementptr inbounds nuw i8, ptr getelementptr inbounds nuw (i8, ptr @lj_char_bits, i64 1), i64 %39
  %41 = load i8, ptr %40, align 1, !tbaa !13
  %42 = and i8 %41, 8
  %.not38 = icmp eq i8 %42, 0
  br i1 %.not38, label %47, label %43

43:                                               ; preds = %37, %34
  %44 = phi i8 [ 48, %37 ], [ 49, %34 ]
  %45 = getelementptr inbounds nuw i8, ptr %.0.i, i64 2
  store i8 %44, ptr %35, align 1, !tbaa !13
  %46 = add nsw i32 %18, -100
  %spec.select = select i1 %36, i32 %46, i32 %18
  br label %49

47:                                               ; preds = %37
  %48 = icmp samesign ugt i8 %17, 9
  br i1 %48, label %49, label %57

49:                                               ; preds = %43, %47
  %.133 = phi i32 [ %18, %47 ], [ %spec.select, %43 ]
  %.1 = phi ptr [ %35, %47 ], [ %45, %43 ]
  %50 = mul nuw nsw i32 %.133, 205
  %51 = lshr i32 %50, 11
  %.neg = mul nuw nsw i32 %51, 246
  %52 = add nsw i32 %.neg, %.133
  %53 = trunc nuw nsw i32 %51 to i8
  %54 = add nuw nsw i8 %53, 48
  %55 = getelementptr inbounds nuw i8, ptr %.1, i64 1
  store i8 %54, ptr %.1, align 1, !tbaa !13
  %56 = trunc i32 %52 to i8
  br label %57

57:                                               ; preds = %47, %49
  %.234 = phi i8 [ %56, %49 ], [ %17, %47 ]
  %.2 = phi ptr [ %55, %49 ], [ %35, %47 ]
  %58 = add i8 %.234, 48
  br label %59

59:                                               ; preds = %29, %57, %27
  %.032 = phi i8 [ %17, %27 ], [ %58, %57 ], [ %17, %29 ]
  %.031 = phi ptr [ %28, %27 ], [ %.2, %57 ], [ %.0.i, %29 ]
  store i8 %.032, ptr %.031, align 1, !tbaa !13
  %storemerge = getelementptr inbounds nuw i8, ptr %.031, i64 1
  store ptr %storemerge, ptr %0, align 8, !tbaa !34
  %.not = icmp eq i32 %15, 0
  br i1 %.not, label %._crit_edge, label %.lr.ph, !llvm.loop !39

._crit_edge:                                      ; preds = %59, %lj_buf_putb.exit
  %60 = phi ptr [ %storemerge41, %lj_buf_putb.exit ], [ %storemerge, %59 ]
  %61 = load ptr, ptr %4, align 8, !tbaa !35
  %62 = ptrtoint ptr %61 to i64
  %63 = ptrtoint ptr %60 to i64
  %64 = sub i64 %62, %63
  %65 = and i64 %64, 4294967295
  %66 = icmp eq i64 %65, 0
  br i1 %66, label %67, label %lj_buf_putb.exit40, !prof !36

67:                                               ; preds = %._crit_edge
  %68 = tail call ptr @lj_buf_more2(ptr noundef nonnull %0, i32 noundef 1) #13
  br label %lj_buf_putb.exit40

lj_buf_putb.exit40:                               ; preds = %._crit_edge, %67
  %.0.i.i39 = phi ptr [ %68, %67 ], [ %60, %._crit_edge ]
  %69 = getelementptr inbounds nuw i8, ptr %.0.i.i39, i64 1
  store i8 34, ptr %.0.i.i39, align 1, !tbaa !13
  store ptr %69, ptr %0, align 8, !tbaa !34
  ret ptr %0
}